target datalayout = "e-m:e-p270:32:32-p271:32:32-p272:64:64-i64:64-i128:128-f80:128-n8:16:32:64-S128"
target triple = "x86_64-pc-linux-gnu"

%"class.llvm::TargetRegisterClass" = type { ptr, ptr, ptr, %"struct.llvm::LaneBitmask", i8, i8, i8, i8, i8, ptr, ptr }
%"struct.llvm::LaneBitmask" = type { i64 }
%"class.llvm::Register" = type { i32 }
%"class.llvm::SmallVectorBase" = type { ptr, i32, i32 }
%"class.llvm::DenseMap" = type <{ ptr, i32, i32, i32, [4 x i8] }>
%"class.llvm::BitVector" = type <{ %"class.llvm::SmallVector.17", i32, [4 x i8] }>
%"class.llvm::SmallVector.17" = type { %"class.llvm::SmallVectorImpl.18", %"struct.llvm::SmallVectorStorage.21" }
%"class.llvm::SmallVectorImpl.18" = type { %"class.llvm::SmallVectorTemplateBase.19" }
%"class.llvm::SmallVectorTemplateBase.19" = type { %"class.llvm::SmallVectorTemplateCommon.20" }
%"class.llvm::SmallVectorTemplateCommon.20" = type { %"class.llvm::SmallVectorBase" }
%"struct.llvm::SmallVectorStorage.21" = type { [48 x i8] }
%"class.llvm::MachineInstrBundleIterator" = type { %"class.llvm::ilist_iterator" }
%"class.llvm::ilist_iterator" = type { ptr }
%"class.(anonymous namespace)::AArch64FastISel" = type { %"class.llvm::FastISel", ptr, ptr }
%"class.llvm::FastISel" = type { ptr, %"class.llvm::DenseMap", ptr, ptr, ptr, ptr, ptr, %"class.llvm::MIMetadata", ptr, ptr, ptr, ptr, ptr, ptr, i8, ptr, ptr, %"class.llvm::MachineInstrBundleIterator" }
%"class.llvm::MIMetadata" = type { %"class.llvm::DebugLoc", ptr, ptr }
%"class.llvm::DebugLoc" = type { %"class.llvm::TypedTrackingMDRef" }
%"class.llvm::TypedTrackingMDRef" = type { %"class.llvm::TrackingMDRef" }
%"class.llvm::TrackingMDRef" = type { ptr }
%"class.llvm::BumpPtrAllocatorImpl" = type { ptr, ptr, %"class.llvm::SmallVector.61", %"class.llvm::SmallVector.66", i64, i64 }
%"class.llvm::SmallVector.61" = type { %"class.llvm::SmallVectorImpl.62", %"struct.llvm::SmallVectorStorage.65" }
%"class.llvm::SmallVectorImpl.62" = type { %"class.llvm::SmallVectorTemplateBase.63" }
%"class.llvm::SmallVectorTemplateBase.63" = type { %"class.llvm::SmallVectorTemplateCommon.64" }
%"class.llvm::SmallVectorTemplateCommon.64" = type { %"class.llvm::SmallVectorBase" }
%"struct.llvm::SmallVectorStorage.65" = type { [32 x i8] }
%"class.llvm::SmallVector.66" = type { %"class.llvm::SmallVectorImpl.67" }
%"class.llvm::SmallVectorImpl.67" = type { %"class.llvm::SmallVectorTemplateBase.68" }
%"class.llvm::SmallVectorTemplateBase.68" = type { %"class.llvm::SmallVectorTemplateCommon.69" }
%"class.llvm::SmallVectorTemplateCommon.69" = type { %"class.llvm::SmallVectorBase" }
%"struct.llvm::Align" = type { i8 }
%"class.llvm::MVT" = type { i16 }
%"class.llvm::MCRegister" = type { i32 }
%"class.llvm::AArch64Subtarget" = type { %"struct.llvm::AArch64GenSubtargetInfo", i8, i32, i8, i8, i8, i8, i8, i8, i8, i8, i8, i8, i8, i8, i8, i8, i8, i8, i8, i8, i8, i8, i8, i8, i8, i8, i8, i8, i8, i8, i8, i8, i8, i8, i8, i8, i8, i8, i8, i8, i8, i8, i8, i8, i8, i8, i8, i8, i8, i8, i8, i8, i8, i8, i8, i8, i8, i8, i8, i8, i8, i8, i8, i8, i8, i8, i8, i8, i8, i8, i8, i8, i8, i8, i8, i8, i8, i8, i8, i8, i8, i8, i8, i8, i8, i8, i8, i8, i8, i8, i8, i8, i8, i8, i8, i8, i8, i8, i8, i8, i8, i8, i8, i8, i8, i8, i8, i8, i8, i8, i8, i8, i8, i8, i8, i8, i8, i8, i8, i8, i8, i8, i8, i8, i8, i8, i8, i8, i8, i8, i8, i8, i8, i8, i8, i8, i8, i8, i8, i8, i8, i8, i8, i8, i8, i8, i8, i8, i8, i8, i8, i8, i8, i8, i8, i8, i8, i8, i8, i8, i8, i8, i8, i8, i8, i8, i8, i8, i8, i8, i8, i8, i8, i8, i8, i8, i8, i8, i8, i8, i8, i8, i8, i8, i8, i8, i8, i8, i8, i8, i8, i8, i8, i16, i32, i32, i16, i16, i32, %"struct.llvm::Align", %"struct.llvm::Align", i32, i32, i32, [4 x i8], %"class.llvm::BitVector", %"class.llvm::BitVector", %"class.llvm::BitVector", i8, i8, i8, i32, i32, i32, i8, %"class.llvm::Triple", %"class.llvm::AArch64FrameLowering", %"class.llvm::AArch64InstrInfo", %"class.llvm::AArch64SelectionDAGInfo", %"class.llvm::AArch64TargetLowering", %"class.std::unique_ptr.174", %"class.std::unique_ptr.182", %"class.std::unique_ptr.190", %"class.std::unique_ptr.198", %"class.std::unique_ptr.206", %"class.std::unique_ptr.214" }
%"struct.llvm::AArch64GenSubtargetInfo" = type { %"class.llvm::TargetSubtargetInfo" }
%"class.llvm::TargetSubtargetInfo" = type { %"class.llvm::MCSubtargetInfo" }
%"class.llvm::MCSubtargetInfo" = type { ptr, %"class.llvm::Triple", %"class.std::__cxx11::basic_string", %"class.std::__cxx11::basic_string", %"class.llvm::ArrayRef", %"class.llvm::ArrayRef.151", ptr, ptr, ptr, ptr, ptr, ptr, ptr, %"class.llvm::FeatureBitset", %"class.std::__cxx11::basic_string" }
%"class.llvm::ArrayRef" = type { ptr, i64 }
%"class.llvm::ArrayRef.151" = type { ptr, i64 }
%"class.llvm::FeatureBitset" = type { %"struct.std::array" }
%"struct.std::array" = type { [5 x i64] }
%"class.std::__cxx11::basic_string" = type { %"struct.std::__cxx11::basic_string<char>::_Alloc_hider", i64, %union.anon.150 }
%"struct.std::__cxx11::basic_string<char>::_Alloc_hider" = type { ptr }
%union.anon.150 = type { i64, [8 x i8] }
%"class.llvm::Triple" = type { %"class.std::__cxx11::basic_string", i32, i32, i32, i32, i32, i32 }
%"class.llvm::AArch64FrameLowering" = type { %"class.llvm::TargetFrameLowering.base", [3 x i8] }
%"class.llvm::TargetFrameLowering.base" = type <{ ptr, i32, %"struct.llvm::Align", %"struct.llvm::Align", [2 x i8], i32, i8 }>
%"class.llvm::AArch64InstrInfo" = type { %"struct.llvm::AArch64GenInstrInfo", %"class.llvm::AArch64RegisterInfo", ptr }
%"struct.llvm::AArch64GenInstrInfo" = type { %"class.llvm::TargetInstrInfo" }
%"class.llvm::TargetInstrInfo" = type { ptr, %"class.llvm::MCInstrInfo.base", %"class.std::unique_ptr.152", i32, i32, i32, i32 }
%"class.llvm::MCInstrInfo.base" = type <{ ptr, ptr, ptr, ptr, ptr, i32 }>
%"class.std::unique_ptr.152" = type { %"struct.std::__uniq_ptr_data.153" }
%"struct.std::__uniq_ptr_data.153" = type { %"class.std::__uniq_ptr_impl.154" }
%"class.std::__uniq_ptr_impl.154" = type { %"class.std::tuple.155" }
%"class.std::tuple.155" = type { %"struct.std::_Tuple_impl.156" }
%"struct.std::_Tuple_impl.156" = type { %"struct.std::_Head_base.159" }
%"struct.std::_Head_base.159" = type { ptr }
%"class.llvm::AArch64RegisterInfo" = type { %"struct.llvm::AArch64GenRegisterInfo.base", ptr }
%"struct.llvm::AArch64GenRegisterInfo.base" = type { %"class.llvm::TargetRegisterInfo.base" }
%"class.llvm::TargetRegisterInfo.base" = type <{ ptr, %"class.llvm::MCRegisterInfo", ptr, ptr, ptr, ptr, ptr, ptr, %"struct.llvm::LaneBitmask", ptr, ptr, i32 }>
%"class.llvm::MCRegisterInfo" = type { ptr, i32, %"class.llvm::MCRegister", %"class.llvm::MCRegister", ptr, i32, i32, ptr, ptr, ptr, ptr, ptr, ptr, i32, ptr, i32, i32, i32, i32, ptr, ptr, ptr, ptr, %"class.llvm::DenseMap.160", %"class.llvm::DenseMap.160", %"class.std::vector.163" }
%"class.llvm::DenseMap.160" = type <{ ptr, i32, i32, i32, [4 x i8] }>
%"class.std::vector.163" = type { %"struct.std::_Vector_base.164" }
%"struct.std::_Vector_base.164" = type { %"struct.std::_Vector_base<std::vector<unsigned short>, std::allocator<std::vector<unsigned short>>>::_Vector_impl" }
%"struct.std::_Vector_base<std::vector<unsigned short>, std::allocator<std::vector<unsigned short>>>::_Vector_impl" = type { %"struct.std::_Vector_base<std::vector<unsigned short>, std::allocator<std::vector<unsigned short>>>::_Vector_impl_data" }
%"struct.std::_Vector_base<std::vector<unsigned short>, std::allocator<std::vector<unsigned short>>>::_Vector_impl_data" = type { ptr, ptr, ptr }
%"class.llvm::AArch64SelectionDAGInfo" = type { %"class.llvm::SelectionDAGTargetInfo" }
%"class.llvm::SelectionDAGTargetInfo" = type { ptr }
%"class.llvm::AArch64TargetLowering" = type { %"class.llvm::TargetLowering.base", ptr, %"class.llvm::BumpPtrAllocatorImpl", %"class.llvm::StringSaver" }
%"class.llvm::TargetLowering.base" = type { %"class.llvm::TargetLoweringBase.base" }
%"class.llvm::TargetLoweringBase.base" = type <{ ptr, ptr, i8, i8, [6 x i8], %"class.llvm::DenseMap.168", i8, [3 x i8], i32, i32, i32, i8, %"struct.llvm::Align", %"struct.llvm::Align", %"struct.llvm::Align", %"struct.llvm::Align", [3 x i8], i32, i32, i32, i32, i32, i8, [3 x i8], %"class.llvm::Register", [4 x i8], [233 x ptr], [233 x i16], [233 x %"class.llvm::MVT"], [4 x i8], [233 x ptr], [233 x i8], i8, [233 x %"class.llvm::MVT"], [233 x [491 x i8]], i8, [233 x [233 x i16]], [233 x [233 x i16]], [233 x [233 x i8]], i8, [233 x [5 x i16]], [24 x [30 x i32]], %"class.llvm::TargetLoweringBase::ValueTypeActionImpl", [62 x i8], i8, %"class.std::map", %"struct.llvm::RTLIB::RuntimeLibcallsInfo", [700 x i32], i32, i32, i32, i32, i32, i32, i32, i32, i32, i32, i8, i8, i8 }>
%"class.llvm::DenseMap.168" = type <{ ptr, i32, i32, i32, [4 x i8] }>
%"class.llvm::TargetLoweringBase::ValueTypeActionImpl" = type { [233 x i8] }
%"class.std::map" = type { %"class.std::_Rb_tree" }
%"class.std::_Rb_tree" = type { %"struct.std::_Rb_tree<std::pair<unsigned int, llvm::MVT::SimpleValueType>, std::pair<const std::pair<unsigned int, llvm::MVT::SimpleValueType>, llvm::MVT::SimpleValueType>, std::_Select1st<std::pair<const std::pair<unsigned int, llvm::MVT::SimpleValueType>, llvm::MVT::SimpleValueType>>, std::less<std::pair<unsigned int, llvm::MVT::SimpleValueType>>>::_Rb_tree_impl" }
%"struct.std::_Rb_tree<std::pair<unsigned int, llvm::MVT::SimpleValueType>, std::pair<const std::pair<unsigned int, llvm::MVT::SimpleValueType>, llvm::MVT::SimpleValueType>, std::_Select1st<std::pair<const std::pair<unsigned int, llvm::MVT::SimpleValueType>, llvm::MVT::SimpleValueType>>, std::less<std::pair<unsigned int, llvm::MVT::SimpleValueType>>>::_Rb_tree_impl" = type { [8 x i8], %"struct.std::_Rb_tree_header" }
%"struct.std::_Rb_tree_header" = type { %"struct.std::_Rb_tree_node_base", i64 }
%"struct.std::_Rb_tree_node_base" = type { i32, ptr, ptr, ptr }
%"struct.llvm::RTLIB::RuntimeLibcallsInfo" = type { [701 x ptr], [700 x i32] }
%"class.llvm::StringSaver" = type { ptr }
%"class.std::unique_ptr.174" = type { %"struct.std::__uniq_ptr_data.175" }
%"struct.std::__uniq_ptr_data.175" = type { %"class.std::__uniq_ptr_impl.176" }
%"class.std::__uniq_ptr_impl.176" = type { %"class.std::tuple.177" }
%"class.std::tuple.177" = type { %"struct.std::_Tuple_impl.178" }
%"struct.std::_Tuple_impl.178" = type { %"struct.std::_Head_base.181" }
%"struct.std::_Head_base.181" = type { ptr }
%"class.std::unique_ptr.182" = type { %"struct.std::__uniq_ptr_data.183" }
%"struct.std::__uniq_ptr_data.183" = type { %"class.std::__uniq_ptr_impl.184" }
%"class.std::__uniq_ptr_impl.184" = type { %"class.std::tuple.185" }
%"class.std::tuple.185" = type { %"struct.std::_Tuple_impl.186" }
%"struct.std::_Tuple_impl.186" = type { %"struct.std::_Head_base.189" }
%"struct.std::_Head_base.189" = type { ptr }
%"class.std::unique_ptr.190" = type { %"struct.std::__uniq_ptr_data.191" }
%"struct.std::__uniq_ptr_data.191" = type { %"class.std::__uniq_ptr_impl.192" }
%"class.std::__uniq_ptr_impl.192" = type { %"class.std::tuple.193" }
%"class.std::tuple.193" = type { %"struct.std::_Tuple_impl.194" }
%"struct.std::_Tuple_impl.194" = type { %"struct.std::_Head_base.197" }
%"struct.std::_Head_base.197" = type { ptr }
%"class.std::unique_ptr.198" = type { %"struct.std::__uniq_ptr_data.199" }
%"struct.std::__uniq_ptr_data.199" = type { %"class.std::__uniq_ptr_impl.200" }
%"class.std::__uniq_ptr_impl.200" = type { %"class.std::tuple.201" }
%"class.std::tuple.201" = type { %"struct.std::_Tuple_impl.202" }
%"struct.std::_Tuple_impl.202" = type { %"struct.std::_Head_base.205" }
%"struct.std::_Head_base.205" = type { ptr }
%"class.std::unique_ptr.206" = type { %"struct.std::__uniq_ptr_data.207" }
%"struct.std::__uniq_ptr_data.207" = type { %"class.std::__uniq_ptr_impl.208" }
%"class.std::__uniq_ptr_impl.208" = type { %"class.std::tuple.209" }
%"class.std::tuple.209" = type { %"struct.std::_Tuple_impl.210" }
%"struct.std::_Tuple_impl.210" = type { %"struct.std::_Head_base.213" }
%"struct.std::_Head_base.213" = type { ptr }
%"class.std::unique_ptr.214" = type { %"struct.std::__uniq_ptr_data.215" }
%"struct.std::__uniq_ptr_data.215" = type { %"class.std::__uniq_ptr_impl.216" }
%"class.std::__uniq_ptr_impl.216" = type { %"class.std::tuple.217" }
%"class.std::tuple.217" = type { %"struct.std::_Tuple_impl.218" }
%"struct.std::_Tuple_impl.218" = type { %"struct.std::_Head_base.221" }
%"struct.std::_Head_base.221" = type { ptr }

@_ZN4llvm7AArch6413GPR64RegClassE = external global %"class.llvm::TargetRegisterClass", align 8
@_ZN4llvm7AArch6413GPR32RegClassE = external global %"class.llvm::TargetRegisterClass", align 8

; Function Attrs: mustprogress nounwind uwtable
define linkonce_odr hidden noundef i32 @_ZNK4llvm8RegistercvjEv(ptr noundef nonnull align 4 dereferenceable(4) %0) #0 comdat align 2 {
  %2 = alloca ptr, align 8
  store ptr %0, ptr %2, align 8
  %3 = load ptr, ptr %2, align 8
  %4 = getelementptr inbounds nuw %"class.llvm::Register", ptr %3, i32 0, i32 0
  %5 = load i32, ptr %4, align 4
  ret i32 %5
}

; Function Attrs: mustprogress nounwind uwtable
define linkonce_odr hidden noundef zeroext i1 @_ZNK4llvm16AArch64Subtarget7hasCSSCEv(ptr noundef nonnull align 8 dereferenceable(409552) %0) #0 comdat align 2 {
  %2 = alloca ptr, align 8
  store ptr %0, ptr %2, align 8
  %3 = load ptr, ptr %2, align 8
  %4 = getelementptr inbounds nuw %"class.llvm::AArch64Subtarget", ptr %3, i32 0, i32 33
  %5 = load i8, ptr %4, align 2
  %6 = trunc i8 %5 to i1
  ret i1 %6
}

; Function Attrs: mustprogress nounwind uwtable
define internal noundef i32 @_ZN12_GLOBAL__N_115AArch64FastISel27fastEmit_ISD_CTTZ_MVT_i64_rEN4llvm3MVTEj(ptr noundef nonnull align 8 dereferenceable(192) %0, i16 %1, i32 noundef %2) #0 align 2 {
  %4 = alloca i32, align 4
  %5 = alloca %"class.llvm::MVT", align 2
  %6 = alloca ptr, align 8
  %7 = alloca i32, align 4
  %8 = alloca %"class.llvm::Register", align 4
  %9 = getelementptr inbounds nuw %"class.llvm::MVT", ptr %5, i32 0, i32 0
  store i16 %1, ptr %9, align 2
  store ptr %0, ptr %6, align 8
  store i32 %2, ptr %7, align 4
  %10 = load ptr, ptr %6, align 8
  %11 = getelementptr inbounds nuw %"class.llvm::MVT", ptr %5, i32 0, i32 0
  %12 = load i16, ptr %11, align 2
  %13 = zext i16 %12 to i32
  %14 = icmp ne i32 %13, 8
  br i1 %14, label %15, label %16

15:                                               ; preds = %3
  store i32 0, ptr %4, align 4
  br label %26

16:                                               ; preds = %3
  %17 = getelementptr inbounds nuw %"class.(anonymous namespace)::AArch64FastISel", ptr %10, i32 0, i32 1
  %18 = load ptr, ptr %17, align 8
  %19 = call noundef zeroext i1 @_ZNK4llvm16AArch64Subtarget7hasCSSCEv(ptr noundef nonnull align 8 dereferenceable(409552) %18)
  br i1 %19, label %20, label %25

20:                                               ; preds = %16
  %21 = load i32, ptr %7, align 4
  %22 = call i32 @_ZN4llvm8FastISel14fastEmitInst_rEjPKNS_19TargetRegisterClassEj(ptr noundef nonnull align 8 dereferenceable(176) %10, i32 noundef 2245, ptr noundef @_ZN4llvm7AArch6413GPR64RegClassE, i32 noundef %21)
  %23 = getelementptr inbounds nuw %"class.llvm::Register", ptr %8, i32 0, i32 0
  store i32 %22, ptr %23, align 4
  %24 = call noundef i32 @_ZNK4llvm8RegistercvjEv(ptr noundef nonnull align 4 dereferenceable(4) %8)
  store i32 %24, ptr %4, align 4
  br label %26

25:                                               ; preds = %16
  store i32 0, ptr %4, align 4
  br label %26

26:                                               ; preds = %25, %20, %15
  %27 = load i32, ptr %4, align 4
  ret i32 %27
}

; Function Attrs: mustprogress nounwind uwtable
define internal noundef i32 @_ZN12_GLOBAL__N_115AArch64FastISel27fastEmit_ISD_CTTZ_MVT_i32_rEN4llvm3MVTEj(ptr noundef nonnull align 8 dereferenceable(192) %0, i16 %1, i32 noundef %2) #0 align 2 {
  %4 = alloca i32, align 4
  %5 = alloca %"class.llvm::MVT", align 2
  %6 = alloca ptr, align 8
  %7 = alloca i32, align 4
  %8 = alloca %"class.llvm::Register", align 4
  %9 = getelementptr inbounds nuw %"class.llvm::MVT", ptr %5, i32 0, i32 0
  store i16 %1, ptr %9, align 2
  store ptr %0, ptr %6, align 8
  store i32 %2, ptr %7, align 4
  %10 = load ptr, ptr %6, align 8
  %11 = getelementptr inbounds nuw %"class.llvm::MVT", ptr %5, i32 0, i32 0
  %12 = load i16, ptr %11, align 2
  %13 = zext i16 %12 to i32
  %14 = icmp ne i32 %13, 7
  br i1 %14, label %15, label %16

15:                                               ; preds = %3
  store i32 0, ptr %4, align 4
  br label %26

16:                                               ; preds = %3
  %17 = getelementptr inbounds nuw %"class.(anonymous namespace)::AArch64FastISel", ptr %10, i32 0, i32 1
  %18 = load ptr, ptr %17, align 8
  %19 = call noundef zeroext i1 @_ZNK4llvm16AArch64Subtarget7hasCSSCEv(ptr noundef nonnull align 8 dereferenceable(409552) %18)
  br i1 %19, label %20, label %25

20:                                               ; preds = %16
  %21 = load i32, ptr %7, align 4
  %22 = call i32 @_ZN4llvm8FastISel14fastEmitInst_rEjPKNS_19TargetRegisterClassEj(ptr noundef nonnull align 8 dereferenceable(176) %10, i32 noundef 2244, ptr noundef @_ZN4llvm7AArch6413GPR32RegClassE, i32 noundef %21)
  %23 = getelementptr inbounds nuw %"class.llvm::Register", ptr %8, i32 0, i32 0
  store i32 %22, ptr %23, align 4
  %24 = call noundef i32 @_ZNK4llvm8RegistercvjEv(ptr noundef nonnull align 4 dereferenceable(4) %8)
  store i32 %24, ptr %4, align 4
  br label %26

25:                                               ; preds = %16
  store i32 0, ptr %4, align 4
  br label %26

26:                                               ; preds = %25, %20, %15
  %27 = load i32, ptr %4, align 4
  ret i32 %27
}

; Function Attrs: mustprogress nounwind uwtable
define internal noundef i32 @_ZN12_GLOBAL__N_115AArch64FastISel19fastEmit_ISD_CTTZ_rEN4llvm3MVTES2_j(ptr noundef nonnull align 8 dereferenceable(192) %0, i16 %1, i16 %2, i32 noundef %3) #0 align 2 {
  %5 = alloca i32, align 4
  %6 = alloca %"class.llvm::MVT", align 2
  %7 = alloca %"class.llvm::MVT", align 2
  %8 = alloca ptr, align 8
  %9 = alloca i32, align 4
  %10 = alloca %"class.llvm::MVT", align 2
  %11 = alloca %"class.llvm::MVT", align 2
  %12 = getelementptr inbounds nuw %"class.llvm::MVT", ptr %6, i32 0, i32 0
  store i16 %1, ptr %12, align 2
  %13 = getelementptr inbounds nuw %"class.llvm::MVT", ptr %7, i32 0, i32 0
  store i16 %2, ptr %13, align 2
  store ptr %0, ptr %8, align 8
  store i32 %3, ptr %9, align 4
  %14 = load ptr, ptr %8, align 8
  %15 = getelementptr inbounds nuw %"class.llvm::MVT", ptr %6, i32 0, i32 0
  %16 = load i16, ptr %15, align 2
  %17 = zext i16 %16 to i32
  switch i32 %17, label %28 [
    i32 7, label %18
    i32 8, label %23
  ]

18:                                               ; preds = %4
  call void @llvm.memcpy.p0.p0.i64(ptr align 2 %10, ptr align 2 %7, i64 2, i1 false)
  %19 = load i32, ptr %9, align 4
  %20 = getelementptr inbounds nuw %"class.llvm::MVT", ptr %10, i32 0, i32 0
  %21 = load i16, ptr %20, align 2
  %22 = call noundef i32 @_ZN12_GLOBAL__N_115AArch64FastISel27fastEmit_ISD_CTTZ_MVT_i32_rEN4llvm3MVTEj(ptr noundef nonnull align 8 dereferenceable(192) %14, i16 %21, i32 noundef %19)
  store i32 %22, ptr %5, align 4
  br label %29

23:                                               ; preds = %4
  call void @llvm.memcpy.p0.p0.i64(ptr align 2 %11, ptr align 2 %7, i64 2, i1 false)
  %24 = load i32, ptr %9, align 4
  %25 = getelementptr inbounds nuw %"class.llvm::MVT", ptr %11, i32 0, i32 0
  %26 = load i16, ptr %25, align 2
  %27 = call noundef i32 @_ZN12_GLOBAL__N_115AArch64FastISel27fastEmit_ISD_CTTZ_MVT_i64_rEN4llvm3MVTEj(ptr noundef nonnull align 8 dereferenceable(192) %14, i16 %26, i32 noundef %24)
  store i32 %27, ptr %5, align 4
  br label %29

28:                                               ; preds = %4
  store i32 0, ptr %5, align 4
  br label %29

29:                                               ; preds = %28, %23, %18
  %30 = load i32, ptr %5, align 4
  ret i32 %30
}