; Function Attrs: mustprogress nounwind uwtable
define internal fastcc noundef i32 @_ZN12_GLOBAL__N_115AArch64FastISel19fastEmit_ISD_CTTZ_rEN4llvm3MVTES2_j(ptr noundef nonnull align 8 dereferenceable(192) %0, i16 %1, i16 %2, i32 noundef %3) unnamed_addr #0 align 2 {
  switch i16 %1, label %_ZN12_GLOBAL__N_115AArch64FastISel27fastEmit_ISD_CTTZ_MVT_i32_rEN4llvm3MVTEj.exit [
    i16 7, label %5
    i16 8, label %14
  ]

5:                                                ; preds = %4
  %.not.i = icmp eq i16 %2, 7
  br i1 %.not.i, label %6, label %_ZN12_GLOBAL__N_115AArch64FastISel27fastEmit_ISD_CTTZ_MVT_i32_rEN4llvm3MVTEj.exit

6:                                                ; preds = %5
  %7 = getelementptr inbounds nuw i8, ptr %0, i64 176
  %8 = load ptr, ptr %7, align 8
  %9 = getelementptr inbounds nuw i8, ptr %8, i64 326
  %10 = load i8, ptr %9, align 2
  %11 = trunc i8 %10 to i1
  br i1 %11, label %12, label %_ZN12_GLOBAL__N_115AArch64FastISel27fastEmit_ISD_CTTZ_MVT_i32_rEN4llvm3MVTEj.exit

12:                                               ; preds = %6
  %13 = tail call i32 @_ZN4llvm8FastISel14fastEmitInst_rEjPKNS_19TargetRegisterClassEj(ptr noundef nonnull align 8 dereferenceable(192) %0, i32 noundef 2244, ptr noundef nonnull @_ZN4llvm7AArch6413GPR32RegClassE, i32 noundef %3) #21
  br label %_ZN12_GLOBAL__N_115AArch64FastISel27fastEmit_ISD_CTTZ_MVT_i32_rEN4llvm3MVTEj.exit

14:                                               ; preds = %4
  %.not.i7 = icmp eq i16 %2, 8
  br i1 %.not.i7, label %15, label %_ZN12_GLOBAL__N_115AArch64FastISel27fastEmit_ISD_CTTZ_MVT_i32_rEN4llvm3MVTEj.exit

15:                                               ; preds = %14
  %16 = getelementptr inbounds nuw i8, ptr %0, i64 176
  %17 = load ptr, ptr %16, align 8
  %18 = getelementptr inbounds nuw i8, ptr %17, i64 326
  %19 = load i8, ptr %18, align 2
  %20 = trunc i8 %19 to i1
  br i1 %20, label %21, label %_ZN12_GLOBAL__N_115AArch64FastISel27fastEmit_ISD_CTTZ_MVT_i32_rEN4llvm3MVTEj.exit

21:                                               ; preds = %15
  %22 = tail call i32 @_ZN4llvm8FastISel14fastEmitInst_rEjPKNS_19TargetRegisterClassEj(ptr noundef nonnull align 8 dereferenceable(192) %0, i32 noundef 2245, ptr noundef nonnull @_ZN4llvm7AArch6413GPR64RegClassE, i32 noundef %3) #21
  br label %_ZN12_GLOBAL__N_115AArch64FastISel27fastEmit_ISD_CTTZ_MVT_i32_rEN4llvm3MVTEj.exit

_ZN12_GLOBAL__N_115AArch64FastISel27fastEmit_ISD_CTTZ_MVT_i32_rEN4llvm3MVTEj.exit: ; preds = %21, %15, %14, %12, %6, %5, %4
  %.0 = phi i32 [ 0, %4 ], [ %13, %12 ], [ 0, %5 ], [ 0, %6 ], [ %22, %21 ], [ 0, %14 ], [ 0, %15 ]
  ret i32 %.0
}